target datalayout = "e-m:e-p270:32:32-p271:32:32-p272:64:64-i64:64-i128:128-f80:128-n8:16:32:64-S128"
target triple = "x86_64-pc-linux-gnu"

%struct._packet_info = type { ptr, ptr, i32, i32, %struct.nstime_t, %struct.nstime_t, %struct.nstime_t, i8, ptr, ptr, ptr, ptr, %struct._address, %struct._address, %struct._address, %struct._address, %struct._address, %struct._address, i32, ptr, i8, [3 x i8], %struct.anon, i32, i32, i32, i32, ptr, i8, ptr, ptr, i16, i16, i32, i32, i16, i32, i32, ptr, ptr, ptr, i8, i8, i16, i16, i16, i32, i16, i16, ptr, ptr, ptr, ptr, ptr, i32, i32 }
%struct.nstime_t = type { i64, i32 }
%struct._address = type { i32, i32, ptr, ptr }
%struct.anon = type { i8, [3 x i8] }

@hf_giop_repoid = internal global i32 0, align 4
@hf_giop_typecode_count = internal global i32 0, align 4
@hf_giop_typecode_member_name = internal global i32 0, align 4
@hf_giop_typecode_name = internal global i32 0, align 4
@hf_giop_typecode_ValueModifier = internal global i32 0, align 4
@hf_giop_typecode_Visibility = internal global i32 0, align 4

; Function Attrs: null_pointer_is_valid sspstrong uwtable
define i32 @get_CDR_ulong(ptr noundef %0, ptr noundef %1, i1 noundef zeroext %2, i32 noundef %3) #0 {
  %5 = alloca ptr, align 8
  %6 = alloca ptr, align 8
  %7 = alloca i8, align 1
  %8 = alloca i32, align 4
  %9 = alloca i32, align 4
  store ptr %0, ptr %5, align 8
  store ptr %1, ptr %6, align 8
  %10 = zext i1 %2 to i8
  store i8 %10, ptr %7, align 1
  store i32 %3, ptr %8, align 4
  call void @llvm.lifetime.start.p0(i64 4, ptr %9) #14
  br label %11

11:                                               ; preds = %18, %4
  %12 = load ptr, ptr %6, align 8
  %13 = load i32, ptr %12, align 4
  %14 = load i32, ptr %8, align 4
  %15 = add i32 %13, %14
  %16 = srem i32 %15, 4
  %17 = icmp ne i32 %16, 0
  br i1 %17, label %18, label %22

18:                                               ; preds = %11
  %19 = load ptr, ptr %6, align 8
  %20 = load i32, ptr %19, align 4
  %21 = add i32 %20, 1
  store i32 %21, ptr %19, align 4
  br label %11, !llvm.loop !10

22:                                               ; preds = %11
  %23 = load i8, ptr %7, align 1, !range !8, !noundef !9
  %24 = trunc i8 %23 to i1
  br i1 %24, label %25, label %30

25:                                               ; preds = %22
  %26 = load ptr, ptr %5, align 8
  %27 = load ptr, ptr %6, align 8
  %28 = load i32, ptr %27, align 4
  %29 = call i32 @tvb_get_ntohl(ptr noundef %26, i32 noundef %28)
  br label %35

30:                                               ; preds = %22
  %31 = load ptr, ptr %5, align 8
  %32 = load ptr, ptr %6, align 8
  %33 = load i32, ptr %32, align 4
  %34 = call i32 @tvb_get_letohl(ptr noundef %31, i32 noundef %33)
  br label %35

35:                                               ; preds = %30, %25
  %36 = phi i32 [ %29, %25 ], [ %34, %30 ]
  store i32 %36, ptr %9, align 4
  %37 = load ptr, ptr %6, align 8
  %38 = load i32, ptr %37, align 4
  %39 = add i32 %38, 4
  store i32 %39, ptr %37, align 4
  %40 = load i32, ptr %9, align 4
  call void @llvm.lifetime.end.p0(i64 4, ptr %9) #14
  ret i32 %40
}

; Function Attrs: null_pointer_is_valid sspstrong uwtable
define i32 @get_CDR_typeCode(ptr noundef %0, ptr noundef %1, ptr noundef %2, ptr noundef %3, i1 noundef zeroext %4, i32 noundef %5, ptr noundef %6) #0 {
  %8 = alloca ptr, align 8
  %9 = alloca ptr, align 8
  %10 = alloca ptr, align 8
  %11 = alloca ptr, align 8
  %12 = alloca i8, align 1
  %13 = alloca i32, align 4
  %14 = alloca ptr, align 8
  %15 = alloca ptr, align 8
  %16 = alloca i32, align 4
  store ptr %0, ptr %8, align 8
  store ptr %1, ptr %9, align 8
  store ptr %2, ptr %10, align 8
  store ptr %3, ptr %11, align 8
  %17 = zext i1 %4 to i8
  store i8 %17, ptr %12, align 1
  store i32 %5, ptr %13, align 4
  store ptr %6, ptr %14, align 8
  call void @llvm.lifetime.start.p0(i64 8, ptr %15) #14
  %18 = load ptr, ptr %9, align 8
  %19 = getelementptr inbounds nuw %struct._packet_info, ptr %18, i32 0, i32 51
  %20 = load ptr, ptr %19, align 8
  %21 = call noalias ptr @wmem_list_new(ptr noundef %20)
  store ptr %21, ptr %15, align 8
  call void @llvm.lifetime.start.p0(i64 4, ptr %16) #14
  %22 = load ptr, ptr %8, align 8
  %23 = load ptr, ptr %9, align 8
  %24 = load ptr, ptr %10, align 8
  %25 = load ptr, ptr %11, align 8
  %26 = load i8, ptr %12, align 1, !range !8, !noundef !9
  %27 = trunc i8 %26 to i1
  %28 = load i32, ptr %13, align 4
  %29 = load ptr, ptr %14, align 8
  %30 = load ptr, ptr %15, align 8
  %31 = call i32 @get_CDR_typeCode_with_params(ptr noundef %22, ptr noundef %23, ptr noundef %24, ptr noundef %25, i1 noundef zeroext %27, i32 noundef %28, ptr noundef %29, ptr noundef %30)
  store i32 %31, ptr %16, align 4
  %32 = load ptr, ptr %15, align 8
  call void @wmem_destroy_list(ptr noundef %32)
  %33 = load i32, ptr %16, align 4
  call void @llvm.lifetime.end.p0(i64 4, ptr %16) #14
  call void @llvm.lifetime.end.p0(i64 8, ptr %15) #14
  ret i32 %33
}

; Function Attrs: null_pointer_is_valid sspstrong uwtable
define signext i16 @get_CDR_short(ptr noundef %0, ptr noundef %1, i1 noundef zeroext %2, i32 noundef %3) #0 {
  %5 = alloca ptr, align 8
  %6 = alloca ptr, align 8
  %7 = alloca i8, align 1
  %8 = alloca i32, align 4
  %9 = alloca i16, align 2
  store ptr %0, ptr %5, align 8
  store ptr %1, ptr %6, align 8
  %10 = zext i1 %2 to i8
  store i8 %10, ptr %7, align 1
  store i32 %3, ptr %8, align 4
  call void @llvm.lifetime.start.p0(i64 2, ptr %9) #14
  br label %11

11:                                               ; preds = %18, %4
  %12 = load ptr, ptr %6, align 8
  %13 = load i32, ptr %12, align 4
  %14 = load i32, ptr %8, align 4
  %15 = add i32 %13, %14
  %16 = srem i32 %15, 2
  %17 = icmp ne i32 %16, 0
  br i1 %17, label %18, label %22

18:                                               ; preds = %11
  %19 = load ptr, ptr %6, align 8
  %20 = load i32, ptr %19, align 4
  %21 = add i32 %20, 1
  store i32 %21, ptr %19, align 4
  br label %11, !llvm.loop !24

22:                                               ; preds = %11
  %23 = load i8, ptr %7, align 1, !range !8, !noundef !9
  %24 = trunc i8 %23 to i1
  br i1 %24, label %25, label %31

25:                                               ; preds = %22
  %26 = load ptr, ptr %5, align 8
  %27 = load ptr, ptr %6, align 8
  %28 = load i32, ptr %27, align 4
  %29 = call zeroext i16 @tvb_get_ntohs(ptr noundef %26, i32 noundef %28)
  %30 = zext i16 %29 to i32
  br label %37

31:                                               ; preds = %22
  %32 = load ptr, ptr %5, align 8
  %33 = load ptr, ptr %6, align 8
  %34 = load i32, ptr %33, align 4
  %35 = call zeroext i16 @tvb_get_letohs(ptr noundef %32, i32 noundef %34)
  %36 = zext i16 %35 to i32
  br label %37

37:                                               ; preds = %31, %25
  %38 = phi i32 [ %30, %25 ], [ %36, %31 ]
  %39 = trunc i32 %38 to i16
  store i16 %39, ptr %9, align 2
  %40 = load ptr, ptr %6, align 8
  %41 = load i32, ptr %40, align 4
  %42 = add i32 %41, 2
  store i32 %42, ptr %40, align 4
  %43 = load i16, ptr %9, align 2
  call void @llvm.lifetime.end.p0(i64 2, ptr %9) #14
  ret i16 %43
}

; Function Attrs: null_pointer_is_valid sspstrong uwtable
define internal void @dissect_tk_value_params(ptr noundef %0, ptr noundef %1, ptr noundef %2, ptr noundef %3, i1 noundef zeroext %4, i32 noundef %5, ptr noundef %6) #0 {
  %8 = alloca ptr, align 8
  %9 = alloca ptr, align 8
  %10 = alloca ptr, align 8
  %11 = alloca ptr, align 8
  %12 = alloca i8, align 1
  %13 = alloca i32, align 4
  %14 = alloca ptr, align 8
  %15 = alloca i32, align 4
  %16 = alloca i8, align 1
  %17 = alloca i16, align 2
  %18 = alloca i32, align 4
  %19 = alloca i32, align 4
  %20 = alloca ptr, align 8
  store ptr %0, ptr %8, align 8
  store ptr %1, ptr %9, align 8
  store ptr %2, ptr %10, align 8
  store ptr %3, ptr %11, align 8
  %21 = zext i1 %4 to i8
  store i8 %21, ptr %12, align 1
  store i32 %5, ptr %13, align 4
  store ptr %6, ptr %14, align 8
  call void @llvm.lifetime.start.p0(i64 4, ptr %15) #14
  call void @llvm.lifetime.start.p0(i64 1, ptr %16) #14
  call void @llvm.lifetime.start.p0(i64 2, ptr %17) #14
  call void @llvm.lifetime.start.p0(i64 4, ptr %18) #14
  call void @llvm.lifetime.start.p0(i64 4, ptr %19) #14
  %22 = load ptr, ptr %8, align 8
  %23 = load ptr, ptr %10, align 8
  %24 = load ptr, ptr %11, align 8
  %25 = load i8, ptr %12, align 1, !range !8, !noundef !9
  %26 = trunc i8 %25 to i1
  %27 = load i32, ptr %13, align 4
  %28 = call i32 @get_CDR_encap_info(ptr noundef %22, ptr noundef %23, ptr noundef %24, i1 noundef zeroext %26, i32 noundef %27, ptr noundef %16, ptr noundef %15)
  call void @llvm.lifetime.start.p0(i64 8, ptr %20) #14
  store ptr null, ptr %20, align 8
  %29 = load ptr, ptr %8, align 8
  %30 = load ptr, ptr %10, align 8
  %31 = load ptr, ptr %11, align 8
  %32 = load i8, ptr %16, align 1, !range !8, !noundef !9
  %33 = trunc i8 %32 to i1
  %34 = load i32, ptr %15, align 4
  %35 = load i32, ptr @hf_giop_repoid, align 4
  call void @dissect_typecode_string_param(ptr noundef %29, ptr noundef %30, ptr noundef %31, i1 noundef zeroext %33, i32 noundef %34, i32 noundef %35, ptr noundef %20)
  %36 = load ptr, ptr %8, align 8
  %37 = load ptr, ptr %10, align 8
  %38 = load ptr, ptr %11, align 8
  %39 = load i8, ptr %16, align 1, !range !8, !noundef !9
  %40 = trunc i8 %39 to i1
  %41 = load i32, ptr %15, align 4
  %42 = load i32, ptr @hf_giop_typecode_name, align 4
  call void @dissect_typecode_string_param(ptr noundef %36, ptr noundef %37, ptr noundef %38, i1 noundef zeroext %40, i32 noundef %41, i32 noundef %42, ptr noundef %20)
  %43 = load ptr, ptr %8, align 8
  %44 = load ptr, ptr %11, align 8
  %45 = load i8, ptr %12, align 1, !range !8, !noundef !9
  %46 = trunc i8 %45 to i1
  %47 = load i32, ptr %13, align 4
  %48 = call signext i16 @get_CDR_short(ptr noundef %43, ptr noundef %44, i1 noundef zeroext %46, i32 noundef %47)
  store i16 %48, ptr %17, align 2
  %49 = load ptr, ptr %10, align 8
  %50 = load i32, ptr @hf_giop_typecode_ValueModifier, align 4
  %51 = load ptr, ptr %8, align 8
  %52 = load ptr, ptr %11, align 8
  %53 = load i32, ptr %52, align 4
  %54 = sub i32 %53, 2
  %55 = load i16, ptr %17, align 2
  %56 = sext i16 %55 to i32
  %57 = call ptr @proto_tree_add_int(ptr noundef %49, i32 noundef %50, ptr noundef %51, i32 noundef %54, i32 noundef 2, i32 noundef %56)
  %58 = load ptr, ptr %8, align 8
  %59 = load ptr, ptr %9, align 8
  %60 = load ptr, ptr %10, align 8
  %61 = load ptr, ptr %11, align 8
  %62 = load i8, ptr %16, align 1, !range !8, !noundef !9
  %63 = trunc i8 %62 to i1
  %64 = load i32, ptr %15, align 4
  %65 = load ptr, ptr %14, align 8
  %66 = call i32 @get_CDR_typeCode(ptr noundef %58, ptr noundef %59, ptr noundef %60, ptr noundef %61, i1 noundef zeroext %63, i32 noundef %64, ptr noundef %65)
  %67 = load ptr, ptr %8, align 8
  %68 = load ptr, ptr %11, align 8
  %69 = load i8, ptr %16, align 1, !range !8, !noundef !9
  %70 = trunc i8 %69 to i1
  %71 = load i32, ptr %15, align 4
  %72 = call i32 @get_CDR_ulong(ptr noundef %67, ptr noundef %68, i1 noundef zeroext %70, i32 noundef %71)
  store i32 %72, ptr %18, align 4
  %73 = load ptr, ptr %10, align 8
  %74 = load i32, ptr @hf_giop_typecode_count, align 4
  %75 = load ptr, ptr %8, align 8
  %76 = load ptr, ptr %11, align 8
  %77 = load i32, ptr %76, align 4
  %78 = sub i32 %77, 4
  %79 = load i32, ptr %18, align 4
  %80 = call ptr @proto_tree_add_uint(ptr noundef %73, i32 noundef %74, ptr noundef %75, i32 noundef %78, i32 noundef 4, i32 noundef %79)
  store i32 0, ptr %19, align 4
  br label %81

81:                                               ; preds = %121, %7
  %82 = load i32, ptr %19, align 4
  %83 = load i32, ptr %18, align 4
  %84 = icmp ult i32 %82, %83
  br i1 %84, label %85, label %124

85:                                               ; preds = %81
  %86 = load ptr, ptr %8, align 8
  %87 = load ptr, ptr %10, align 8
  %88 = load ptr, ptr %11, align 8
  %89 = load i8, ptr %16, align 1, !range !8, !noundef !9
  %90 = trunc i8 %89 to i1
  %91 = load i32, ptr %15, align 4
  %92 = load i32, ptr @hf_giop_typecode_member_name, align 4
  call void @dissect_typecode_string_param(ptr noundef %86, ptr noundef %87, ptr noundef %88, i1 noundef zeroext %90, i32 noundef %91, i32 noundef %92, ptr noundef %20)
  %93 = load ptr, ptr %8, align 8
  %94 = load ptr, ptr %9, align 8
  %95 = load ptr, ptr %10, align 8
  %96 = load ptr, ptr %11, align 8
  %97 = load i8, ptr %16, align 1, !range !8, !noundef !9
  %98 = trunc i8 %97 to i1
  %99 = load i32, ptr %15, align 4
  %100 = load ptr, ptr %14, align 8
  %101 = call i32 @get_CDR_typeCode(ptr noundef %93, ptr noundef %94, ptr noundef %95, ptr noundef %96, i1 noundef zeroext %98, i32 noundef %99, ptr noundef %100)
  %102 = load ptr, ptr %8, align 8
  %103 = load ptr, ptr %11, align 8
  %104 = load i8, ptr %12, align 1, !range !8, !noundef !9
  %105 = trunc i8 %104 to i1
  %106 = load i32, ptr %13, align 4
  %107 = call signext i16 @get_CDR_short(ptr noundef %102, ptr noundef %103, i1 noundef zeroext %105, i32 noundef %106)
  store i16 %107, ptr %17, align 2
  %108 = load ptr, ptr %10, align 8
  %109 = icmp ne ptr %108, null
  br i1 %109, label %110, label %120

110:                                              ; preds = %85
  %111 = load ptr, ptr %10, align 8
  %112 = load i32, ptr @hf_giop_typecode_Visibility, align 4
  %113 = load ptr, ptr %8, align 8
  %114 = load ptr, ptr %11, align 8
  %115 = load i32, ptr %114, align 4
  %116 = sub i32 %115, 2
  %117 = load i16, ptr %17, align 2
  %118 = sext i16 %117 to i32
  %119 = call ptr @proto_tree_add_int(ptr noundef %111, i32 noundef %112, ptr noundef %113, i32 noundef %116, i32 noundef 2, i32 noundef %118)
  br label %120

120:                                              ; preds = %110, %85
  br label %121

121:                                              ; preds = %120
  %122 = load i32, ptr %19, align 4
  %123 = add i32 %122, 1
  store i32 %123, ptr %19, align 4
  br label %81, !llvm.loop !32

124:                                              ; preds = %81
  call void @llvm.lifetime.end.p0(i64 8, ptr %20) #14
  call void @llvm.lifetime.end.p0(i64 4, ptr %19) #14
  call void @llvm.lifetime.end.p0(i64 4, ptr %18) #14
  call void @llvm.lifetime.end.p0(i64 2, ptr %17) #14
  call void @llvm.lifetime.end.p0(i64 1, ptr %16) #14
  call void @llvm.lifetime.end.p0(i64 4, ptr %15) #14
  ret void
}