; Function Attrs: null_pointer_is_valid sspstrong uwtable
define internal fastcc void @dissect_tk_value_params(ptr noundef %0, ptr noundef %1, ptr noundef %2, ptr noundef captures(none) %3, i1 noundef zeroext %4, i32 noundef %5, ptr noundef readonly captures(none) %6) unnamed_addr #0 {
  %8 = alloca i32, align 4
  %9 = alloca i8, align 1
  %10 = alloca ptr, align 8
  call void @llvm.lifetime.start.p0(i64 4, ptr nonnull %8) #17
  call void @llvm.lifetime.start.p0(i64 1, ptr nonnull %9) #17
  %11 = call i32 @get_CDR_encap_info(ptr noundef %0, ptr noundef %2, ptr noundef %3, i1 noundef zeroext %4, i32 noundef %5, ptr noundef nonnull %9, ptr noundef nonnull %8)
  call void @llvm.lifetime.start.p0(i64 8, ptr nonnull %10) #17
  %12 = load i8, ptr %9, align 1, !range !29, !noundef !30
  %13 = trunc nuw i8 %12 to i1
  %14 = load i32, ptr %8, align 4
  %15 = load i32, ptr @hf_giop_repoid, align 4
  call fastcc void @dissect_typecode_string_param(ptr noundef %0, ptr noundef %2, ptr noundef %3, i1 noundef zeroext %13, i32 noundef %14, i32 noundef %15, ptr noundef nonnull %10)
  %16 = load i32, ptr @hf_giop_typecode_name, align 4
  call fastcc void @dissect_typecode_string_param(ptr noundef %0, ptr noundef %2, ptr noundef %3, i1 noundef zeroext %13, i32 noundef %14, i32 noundef %16, ptr noundef nonnull %10)
  %.promoted.i = load i32, ptr %3, align 4
  %17 = add i32 %.promoted.i, %5
  %18 = and i32 %17, 1
  %.not9.i = icmp eq i32 %18, 0
  br i1 %.not9.i, label %20, label %.lr.ph.preheader.i

.lr.ph.preheader.i:                               ; preds = %7
  %19 = add i32 %.promoted.i, 1
  store i32 %19, ptr %3, align 4
  br label %20

20:                                               ; preds = %.lr.ph.preheader.i, %7
  %.lcssa.i = phi i32 [ %19, %.lr.ph.preheader.i ], [ %.promoted.i, %7 ]
  br i1 %4, label %21, label %23

21:                                               ; preds = %20
  %22 = tail call zeroext i16 @tvb_get_ntohs(ptr noundef %0, i32 noundef %.lcssa.i)
  br label %get_CDR_short.exit

23:                                               ; preds = %20
  %24 = tail call zeroext i16 @tvb_get_letohs(ptr noundef %0, i32 noundef %.lcssa.i)
  br label %get_CDR_short.exit

get_CDR_short.exit:                               ; preds = %21, %23
  %.in.i = phi i16 [ %22, %21 ], [ %24, %23 ]
  %25 = load i32, ptr %3, align 4
  %26 = add i32 %25, 2
  store i32 %26, ptr %3, align 4
  %27 = load i32, ptr @hf_giop_typecode_ValueModifier, align 4
  %28 = sext i16 %.in.i to i32
  %29 = tail call ptr @proto_tree_add_int(ptr noundef %2, i32 noundef %27, ptr noundef %0, i32 noundef %25, i32 noundef 2, i32 noundef %28)
  %30 = getelementptr inbounds nuw i8, ptr %1, i64 408
  %31 = load ptr, ptr %30, align 8
  %32 = tail call noalias ptr @wmem_list_new(ptr noundef %31)
  %33 = tail call fastcc i32 @get_CDR_typeCode_with_params(ptr noundef %0, ptr noundef %1, ptr noundef %2, ptr noundef %3, i1 noundef zeroext %13, i32 noundef %14, ptr noundef %6, ptr noundef %32)
  tail call void @wmem_destroy_list(ptr noundef %32)
  %.promoted.i50 = load i32, ptr %3, align 4
  %34 = add i32 %.promoted.i50, %14
  %35 = and i32 %34, 3
  %.not9.i51 = icmp eq i32 %35, 0
  br i1 %.not9.i51, label %37, label %.lr.ph.preheader.i52

.lr.ph.preheader.i52:                             ; preds = %get_CDR_short.exit
  %36 = or i32 %34, -4
  %sub = sub i32 %.promoted.i50, %36
  store i32 %sub, ptr %3, align 4
  br label %37

37:                                               ; preds = %.lr.ph.preheader.i52, %get_CDR_short.exit
  %.lcssa.i53 = phi i32 [ %sub, %.lr.ph.preheader.i52 ], [ %.promoted.i50, %get_CDR_short.exit ]
  br i1 %13, label %38, label %40

38:                                               ; preds = %37
  %39 = tail call i32 @tvb_get_ntohl(ptr noundef %0, i32 noundef %.lcssa.i53)
  br label %get_CDR_ulong.exit

40:                                               ; preds = %37
  %41 = tail call i32 @tvb_get_letohl(ptr noundef %0, i32 noundef %.lcssa.i53)
  br label %get_CDR_ulong.exit

get_CDR_ulong.exit:                               ; preds = %38, %40
  %42 = phi i32 [ %39, %38 ], [ %41, %40 ]
  %43 = load i32, ptr %3, align 4
  %44 = add i32 %43, 4
  store i32 %44, ptr %3, align 4
  %45 = load i32, ptr @hf_giop_typecode_count, align 4
  %46 = tail call ptr @proto_tree_add_uint(ptr noundef %2, i32 noundef %45, ptr noundef %0, i32 noundef %43, i32 noundef 4, i32 noundef %42)
  %.not68 = icmp eq i32 %42, 0
  br i1 %.not68, label %._crit_edge, label %.lr.ph

.lr.ph:                                           ; preds = %get_CDR_ulong.exit
  %.not = icmp eq ptr %2, null
  br i1 %.not, label %.lr.ph.split.us, label %.lr.ph.split

.lr.ph.split.us:                                  ; preds = %.lr.ph
  br i1 %4, label %.lr.ph.split.us.split.us, label %.lr.ph.split.us.split

.lr.ph.split.us.split.us:                         ; preds = %.lr.ph.split.us, %get_CDR_short.exit59.us.us
  %.060.us.us = phi i32 [ %57, %get_CDR_short.exit59.us.us ], [ 0, %.lr.ph.split.us ]
  %47 = load i32, ptr @hf_giop_typecode_member_name, align 4
  call fastcc void @dissect_typecode_string_param(ptr noundef %0, ptr noundef null, ptr noundef %3, i1 noundef zeroext %13, i32 noundef %14, i32 noundef %47, ptr noundef nonnull %10)
  %48 = load ptr, ptr %30, align 8
  %49 = tail call noalias ptr @wmem_list_new(ptr noundef %48)
  %50 = tail call fastcc i32 @get_CDR_typeCode_with_params(ptr noundef %0, ptr noundef %1, ptr noundef null, ptr noundef %3, i1 noundef zeroext %13, i32 noundef %14, ptr noundef %6, ptr noundef %49)
  tail call void @wmem_destroy_list(ptr noundef %49)
  %.promoted.i54.us.us = load i32, ptr %3, align 4
  %51 = add i32 %.promoted.i54.us.us, %5
  %52 = and i32 %51, 1
  %.not9.i55.us.us = icmp eq i32 %52, 0
  br i1 %.not9.i55.us.us, label %get_CDR_short.exit59.us.us, label %.lr.ph.preheader.i56.us.us

.lr.ph.preheader.i56.us.us:                       ; preds = %.lr.ph.split.us.split.us
  %53 = add i32 %.promoted.i54.us.us, 1
  store i32 %53, ptr %3, align 4
  br label %get_CDR_short.exit59.us.us

get_CDR_short.exit59.us.us:                       ; preds = %.lr.ph.preheader.i56.us.us, %.lr.ph.split.us.split.us
  %.lcssa.i57.us.us = phi i32 [ %53, %.lr.ph.preheader.i56.us.us ], [ %.promoted.i54.us.us, %.lr.ph.split.us.split.us ]
  %54 = tail call zeroext i16 @tvb_get_ntohs(ptr noundef %0, i32 noundef %.lcssa.i57.us.us)
  %55 = load i32, ptr %3, align 4
  %56 = add i32 %55, 2
  store i32 %56, ptr %3, align 4
  %57 = add nuw i32 %.060.us.us, 1
  %exitcond74.not = icmp eq i32 %57, %42
  br i1 %exitcond74.not, label %._crit_edge, label %.lr.ph.split.us.split.us, !llvm.loop !38

.lr.ph.split.us.split:                            ; preds = %.lr.ph.split.us, %get_CDR_short.exit59.us
  %.060.us = phi i32 [ %68, %get_CDR_short.exit59.us ], [ 0, %.lr.ph.split.us ]
  %58 = load i32, ptr @hf_giop_typecode_member_name, align 4
  call fastcc void @dissect_typecode_string_param(ptr noundef %0, ptr noundef null, ptr noundef %3, i1 noundef zeroext %13, i32 noundef %14, i32 noundef %58, ptr noundef nonnull %10)
  %59 = load ptr, ptr %30, align 8
  %60 = tail call noalias ptr @wmem_list_new(ptr noundef %59)
  %61 = tail call fastcc i32 @get_CDR_typeCode_with_params(ptr noundef %0, ptr noundef %1, ptr noundef null, ptr noundef %3, i1 noundef zeroext %13, i32 noundef %14, ptr noundef %6, ptr noundef %60)
  tail call void @wmem_destroy_list(ptr noundef %60)
  %.promoted.i54.us = load i32, ptr %3, align 4
  %62 = add i32 %.promoted.i54.us, %5
  %63 = and i32 %62, 1
  %.not9.i55.us = icmp eq i32 %63, 0
  br i1 %.not9.i55.us, label %get_CDR_short.exit59.us, label %.lr.ph.preheader.i56.us

.lr.ph.preheader.i56.us:                          ; preds = %.lr.ph.split.us.split
  %64 = add i32 %.promoted.i54.us, 1
  store i32 %64, ptr %3, align 4
  br label %get_CDR_short.exit59.us

get_CDR_short.exit59.us:                          ; preds = %.lr.ph.preheader.i56.us, %.lr.ph.split.us.split
  %.lcssa.i57.us = phi i32 [ %64, %.lr.ph.preheader.i56.us ], [ %.promoted.i54.us, %.lr.ph.split.us.split ]
  %65 = tail call zeroext i16 @tvb_get_letohs(ptr noundef %0, i32 noundef %.lcssa.i57.us)
  %66 = load i32, ptr %3, align 4
  %67 = add i32 %66, 2
  store i32 %67, ptr %3, align 4
  %68 = add nuw i32 %.060.us, 1
  %exitcond73.not = icmp eq i32 %68, %42
  br i1 %exitcond73.not, label %._crit_edge, label %.lr.ph.split.us.split, !llvm.loop !38

.lr.ph.split:                                     ; preds = %.lr.ph
  br i1 %4, label %.lr.ph.split.split.us, label %.lr.ph.split.split

.lr.ph.split.split.us:                            ; preds = %.lr.ph.split, %get_CDR_short.exit59.us66
  %.060.us61 = phi i32 [ %82, %get_CDR_short.exit59.us66 ], [ 0, %.lr.ph.split ]
  %69 = load i32, ptr @hf_giop_typecode_member_name, align 4
  call fastcc void @dissect_typecode_string_param(ptr noundef %0, ptr noundef nonnull %2, ptr noundef %3, i1 noundef zeroext %13, i32 noundef %14, i32 noundef %69, ptr noundef nonnull %10)
  %70 = load ptr, ptr %30, align 8
  %71 = tail call noalias ptr @wmem_list_new(ptr noundef %70)
  %72 = tail call fastcc i32 @get_CDR_typeCode_with_params(ptr noundef %0, ptr noundef %1, ptr noundef nonnull %2, ptr noundef %3, i1 noundef zeroext %13, i32 noundef %14, ptr noundef %6, ptr noundef %71)
  tail call void @wmem_destroy_list(ptr noundef %71)
  %.promoted.i54.us62 = load i32, ptr %3, align 4
  %73 = add i32 %.promoted.i54.us62, %5
  %74 = and i32 %73, 1
  %.not9.i55.us63 = icmp eq i32 %74, 0
  br i1 %.not9.i55.us63, label %get_CDR_short.exit59.us66, label %.lr.ph.preheader.i56.us64

.lr.ph.preheader.i56.us64:                        ; preds = %.lr.ph.split.split.us
  %75 = add i32 %.promoted.i54.us62, 1
  store i32 %75, ptr %3, align 4
  br label %get_CDR_short.exit59.us66

get_CDR_short.exit59.us66:                        ; preds = %.lr.ph.preheader.i56.us64, %.lr.ph.split.split.us
  %.lcssa.i57.us65 = phi i32 [ %75, %.lr.ph.preheader.i56.us64 ], [ %.promoted.i54.us62, %.lr.ph.split.split.us ]
  %76 = tail call zeroext i16 @tvb_get_ntohs(ptr noundef %0, i32 noundef %.lcssa.i57.us65)
  %77 = load i32, ptr %3, align 4
  %78 = add i32 %77, 2
  store i32 %78, ptr %3, align 4
  %79 = load i32, ptr @hf_giop_typecode_Visibility, align 4
  %80 = sext i16 %76 to i32
  %81 = tail call ptr @proto_tree_add_int(ptr noundef nonnull %2, i32 noundef %79, ptr noundef %0, i32 noundef %77, i32 noundef 2, i32 noundef %80)
  %82 = add nuw i32 %.060.us61, 1
  %exitcond72.not = icmp eq i32 %82, %42
  br i1 %exitcond72.not, label %._crit_edge, label %.lr.ph.split.split.us, !llvm.loop !38

.lr.ph.split.split:                               ; preds = %.lr.ph.split, %get_CDR_short.exit59
  %.060 = phi i32 [ %96, %get_CDR_short.exit59 ], [ 0, %.lr.ph.split ]
  %83 = load i32, ptr @hf_giop_typecode_member_name, align 4
  call fastcc void @dissect_typecode_string_param(ptr noundef %0, ptr noundef nonnull %2, ptr noundef %3, i1 noundef zeroext %13, i32 noundef %14, i32 noundef %83, ptr noundef nonnull %10)
  %84 = load ptr, ptr %30, align 8
  %85 = tail call noalias ptr @wmem_list_new(ptr noundef %84)
  %86 = tail call fastcc i32 @get_CDR_typeCode_with_params(ptr noundef %0, ptr noundef %1, ptr noundef nonnull %2, ptr noundef %3, i1 noundef zeroext %13, i32 noundef %14, ptr noundef %6, ptr noundef %85)
  tail call void @wmem_destroy_list(ptr noundef %85)
  %.promoted.i54 = load i32, ptr %3, align 4
  %87 = add i32 %.promoted.i54, %5
  %88 = and i32 %87, 1
  %.not9.i55 = icmp eq i32 %88, 0
  br i1 %.not9.i55, label %get_CDR_short.exit59, label %.lr.ph.preheader.i56

.lr.ph.preheader.i56:                             ; preds = %.lr.ph.split.split
  %89 = add i32 %.promoted.i54, 1
  store i32 %89, ptr %3, align 4
  br label %get_CDR_short.exit59

get_CDR_short.exit59:                             ; preds = %.lr.ph.preheader.i56, %.lr.ph.split.split
  %.lcssa.i57 = phi i32 [ %89, %.lr.ph.preheader.i56 ], [ %.promoted.i54, %.lr.ph.split.split ]
  %90 = tail call zeroext i16 @tvb_get_letohs(ptr noundef %0, i32 noundef %.lcssa.i57)
  %91 = load i32, ptr %3, align 4
  %92 = add i32 %91, 2
  store i32 %92, ptr %3, align 4
  %93 = load i32, ptr @hf_giop_typecode_Visibility, align 4
  %94 = sext i16 %90 to i32
  %95 = tail call ptr @proto_tree_add_int(ptr noundef nonnull %2, i32 noundef %93, ptr noundef %0, i32 noundef %91, i32 noundef 2, i32 noundef %94)
  %96 = add nuw i32 %.060, 1
  %exitcond.not = icmp eq i32 %96, %42
  br i1 %exitcond.not, label %._crit_edge, label %.lr.ph.split.split, !llvm.loop !38

._crit_edge:                                      ; preds = %get_CDR_short.exit59, %get_CDR_short.exit59.us66, %get_CDR_short.exit59.us, %get_CDR_short.exit59.us.us, %get_CDR_ulong.exit
  call void @llvm.lifetime.end.p0(i64 8, ptr nonnull %10) #17
  call void @llvm.lifetime.end.p0(i64 1, ptr nonnull %9) #17
  call void @llvm.lifetime.end.p0(i64 4, ptr nonnull %8) #17
  ret void
}